target datalayout = "e-m:e-p270:32:32-p271:32:32-p272:64:64-i64:64-i128:128-f80:128-n8:16:32:64-S128"
target triple = "x86_64-pc-linux-gnu"

%struct.mspack_system = type { ptr, ptr, ptr, ptr, ptr, ptr, ptr, ptr, ptr, ptr, ptr }

; Function Attrs: nounwind uwtable
define internal i32 @copy_fh(ptr noundef %0, ptr noundef %1, ptr noundef %2, i64 noundef %3, ptr noundef %4, i32 noundef %5) #0 {
  %7 = alloca i32, align 4
  %8 = alloca ptr, align 8
  %9 = alloca ptr, align 8
  %10 = alloca ptr, align 8
  %11 = alloca i64, align 8
  %12 = alloca ptr, align 8
  %13 = alloca i32, align 4
  %14 = alloca i32, align 4
  %15 = alloca i32, align 4
  store ptr %0, ptr %8, align 8, !tbaa !3
  store ptr %1, ptr %9, align 8, !tbaa !24
  store ptr %2, ptr %10, align 8, !tbaa !24
  store i64 %3, ptr %11, align 8, !tbaa !45
  store ptr %4, ptr %12, align 8, !tbaa !22
  store i32 %5, ptr %13, align 4, !tbaa !28
  br label %16

16:                                               ; preds = %60, %6
  %17 = load i64, ptr %11, align 8, !tbaa !45
  %18 = icmp ne i64 %17, 0
  br i1 %18, label %19, label %61

19:                                               ; preds = %16
  call void @llvm.lifetime.start.p0(i64 4, ptr %14) #5
  %20 = load i32, ptr %13, align 4, !tbaa !28
  store i32 %20, ptr %14, align 4, !tbaa !28
  %21 = load i32, ptr %14, align 4, !tbaa !28
  %22 = sext i32 %21 to i64
  %23 = load i64, ptr %11, align 8, !tbaa !45
  %24 = icmp ugt i64 %22, %23
  br i1 %24, label %25, label %28

25:                                               ; preds = %19
  %26 = load i64, ptr %11, align 8, !tbaa !45
  %27 = trunc i64 %26 to i32
  store i32 %27, ptr %14, align 4, !tbaa !28
  br label %28

28:                                               ; preds = %25, %19
  %29 = load ptr, ptr %8, align 8, !tbaa !3
  %30 = getelementptr inbounds nuw %struct.mspack_system, ptr %29, i32 0, i32 2
  %31 = load ptr, ptr %30, align 8, !tbaa !30
  %32 = load ptr, ptr %9, align 8, !tbaa !24
  %33 = load ptr, ptr %12, align 8, !tbaa !22
  %34 = load i32, ptr %14, align 4, !tbaa !28
  %35 = call i32 %31(ptr noundef %32, ptr noundef %33, i32 noundef %34)
  %36 = load i32, ptr %14, align 4, !tbaa !28
  %37 = icmp ne i32 %35, %36
  br i1 %37, label %38, label %39

38:                                               ; preds = %28
  store i32 3, ptr %7, align 4
  store i32 1, ptr %15, align 4
  br label %58

39:                                               ; preds = %28
  %40 = load ptr, ptr %10, align 8, !tbaa !24
  %41 = icmp ne ptr %40, null
  br i1 %41, label %42, label %53

42:                                               ; preds = %39
  %43 = load ptr, ptr %8, align 8, !tbaa !3
  %44 = getelementptr inbounds nuw %struct.mspack_system, ptr %43, i32 0, i32 3
  %45 = load ptr, ptr %44, align 8, !tbaa !34
  %46 = load ptr, ptr %10, align 8, !tbaa !24
  %47 = load ptr, ptr %12, align 8, !tbaa !22
  %48 = load i32, ptr %14, align 4, !tbaa !28
  %49 = call i32 %45(ptr noundef %46, ptr noundef %47, i32 noundef %48)
  %50 = load i32, ptr %14, align 4, !tbaa !28
  %51 = icmp ne i32 %49, %50
  br i1 %51, label %52, label %53

52:                                               ; preds = %42
  store i32 4, ptr %7, align 4
  store i32 1, ptr %15, align 4
  br label %58

53:                                               ; preds = %42, %39
  %54 = load i32, ptr %14, align 4, !tbaa !28
  %55 = sext i32 %54 to i64
  %56 = load i64, ptr %11, align 8, !tbaa !45
  %57 = sub i64 %56, %55
  store i64 %57, ptr %11, align 8, !tbaa !45
  store i32 0, ptr %15, align 4
  br label %58

58:                                               ; preds = %53, %52, %38
  call void @llvm.lifetime.end.p0(i64 4, ptr %14) #5
  %59 = load i32, ptr %15, align 4
  switch i32 %59, label %64 [
    i32 0, label %60
    i32 1, label %62
  ]

60:                                               ; preds = %58
  br label %16

61:                                               ; preds = %16
  store i32 0, ptr %7, align 4
  br label %62

62:                                               ; preds = %61, %58
  %63 = load i32, ptr %7, align 4
  ret i32 %63

64:                                               ; preds = %58
  unreachable
}