; Function Attrs: nounwind uwtable
define internal fastcc range(i32 0, 5) i32 @copy_fh(ptr noundef readonly captures(none) %0, ptr noundef nonnull %1, ptr noundef %2, i64 noundef %3, ptr noundef nonnull %4, i32 noundef %5) unnamed_addr #0 {
  %7 = sext i32 %5 to i64
  %8 = getelementptr inbounds nuw i8, ptr %0, i64 24
  %.not32 = icmp eq i64 %3, 0
  br i1 %.not32, label %.thread, label %.lr.ph

.lr.ph:                                           ; preds = %6
  %9 = getelementptr inbounds nuw i8, ptr %0, i64 16
  %.not25 = icmp eq ptr %2, null
  br i1 %.not25, label %.lr.ph.split.us, label %.lr.ph.split

.lr.ph.split.us:                                  ; preds = %.lr.ph, %12
  %.02133.us = phi i64 [ %14, %12 ], [ %3, %.lr.ph ]
  %spec.select31.us = tail call i64 @llvm.umin.i64(i64 %.02133.us, i64 %7)
  %spec.select.us = trunc i64 %spec.select31.us to i32
  %10 = load ptr, ptr %9, align 8, !tbaa !18
  %11 = tail call i32 %10(ptr noundef nonnull %1, ptr noundef nonnull %4, i32 noundef %spec.select.us) #6
  %.not24.us = icmp eq i32 %11, %spec.select.us
  br i1 %.not24.us, label %12, label %.thread

12:                                               ; preds = %.lr.ph.split.us
  %sext.us = shl i64 %spec.select31.us, 32
  %13 = ashr exact i64 %sext.us, 32
  %14 = sub i64 %.02133.us, %13
  %.not.us = icmp eq i64 %14, 0
  br i1 %.not.us, label %.thread, label %.lr.ph.split.us

.lr.ph.split:                                     ; preds = %.lr.ph, %20
  %.02133 = phi i64 [ %22, %20 ], [ %3, %.lr.ph ]
  %spec.select31 = tail call i64 @llvm.umin.i64(i64 %.02133, i64 %7)
  %spec.select = trunc i64 %spec.select31 to i32
  %15 = load ptr, ptr %9, align 8, !tbaa !18
  %16 = tail call i32 %15(ptr noundef nonnull %1, ptr noundef nonnull %4, i32 noundef %spec.select) #6
  %.not24 = icmp eq i32 %16, %spec.select
  br i1 %.not24, label %17, label %.thread

17:                                               ; preds = %.lr.ph.split
  %18 = load ptr, ptr %8, align 8, !tbaa !21
  %19 = tail call i32 %18(ptr noundef nonnull %2, ptr noundef nonnull %4, i32 noundef %spec.select) #6
  %.not26 = icmp eq i32 %19, %spec.select
  br i1 %.not26, label %20, label %.thread

20:                                               ; preds = %17
  %sext = shl i64 %spec.select31, 32
  %21 = ashr exact i64 %sext, 32
  %22 = sub i64 %.02133, %21
  %.not = icmp eq i64 %22, 0
  br i1 %.not, label %.thread, label %.lr.ph.split

.thread:                                          ; preds = %20, %.lr.ph.split, %17, %12, %.lr.ph.split.us, %6
  %.2 = phi i32 [ 0, %6 ], [ 3, %.lr.ph.split.us ], [ 0, %12 ], [ 4, %17 ], [ 3, %.lr.ph.split ], [ 0, %20 ]
  ret i32 %.2
}